; Function Attrs: mustprogress uwtable
define hidden void @_ZNK4cvc58internal7Integer11modMultiplyERKS1_S3_(ptr dead_on_unwind noalias writable sret(%"class.cvc5::internal::Integer") align 8 %0, ptr noundef nonnull align 8 dereferenceable(16) %1, ptr noundef nonnull align 8 dereferenceable(16) %2, ptr noundef nonnull align 8 dereferenceable(16) %3) local_unnamed_addr #0 align 2 personality ptr @__gxx_personality_v0 {
  %5 = alloca %class.__gmp_expr, align 8
  call void @llvm.lifetime.start.p0(i64 16, ptr nonnull %5) #16
  call void @__gmpz_init(ptr noundef nonnull align 8 dereferenceable(16) %5) #16
  invoke void @__gmpz_mul(ptr noundef nonnull %5, ptr noundef nonnull %1, ptr noundef nonnull %2)
          to label %6 unwind label %11

6:                                                ; preds = %4
  invoke void @__gmpz_mod(ptr noundef nonnull %5, ptr noundef nonnull %5, ptr noundef nonnull %3)
          to label %7 unwind label %11

7:                                                ; preds = %6
  invoke void @__gmpz_init_set(ptr noundef nonnull align 8 dereferenceable(16) %0, ptr noundef nonnull align 8 dereferenceable(16) %5)
          to label %_ZN4cvc58internal7IntegerC2ERK10__gmp_exprIA1_12__mpz_structS4_E.exit unwind label %11

_ZN4cvc58internal7IntegerC2ERK10__gmp_exprIA1_12__mpz_structS4_E.exit: ; preds = %7
  invoke void @__gmpz_clear(ptr noundef nonnull align 8 dereferenceable(16) %5)
          to label %_ZN10__gmp_exprIA1_12__mpz_structS1_ED2Ev.exit unwind label %8

8:                                                ; preds = %_ZN4cvc58internal7IntegerC2ERK10__gmp_exprIA1_12__mpz_structS4_E.exit
  %9 = landingpad { ptr, i32 }
          catch ptr null
  %10 = extractvalue { ptr, i32 } %9, 0
  call void @__clang_call_terminate(ptr %10) #19
  unreachable

_ZN10__gmp_exprIA1_12__mpz_structS1_ED2Ev.exit:   ; preds = %_ZN4cvc58internal7IntegerC2ERK10__gmp_exprIA1_12__mpz_structS4_E.exit
  call void @llvm.lifetime.end.p0(i64 16, ptr nonnull %5) #16
  ret void

11:                                               ; preds = %7, %6, %4
  %12 = landingpad { ptr, i32 }
          cleanup
  invoke void @__gmpz_clear(ptr noundef nonnull align 8 dereferenceable(16) %5)
          to label %_ZN10__gmp_exprIA1_12__mpz_structS1_ED2Ev.exit4 unwind label %13

13:                                               ; preds = %11
  %14 = landingpad { ptr, i32 }
          catch ptr null
  %15 = extractvalue { ptr, i32 } %14, 0
  call void @__clang_call_terminate(ptr %15) #19
  unreachable

_ZN10__gmp_exprIA1_12__mpz_structS1_ED2Ev.exit4:  ; preds = %11
  call void @llvm.lifetime.end.p0(i64 16, ptr nonnull %5) #16
  resume { ptr, i32 } %12
}